; ModuleID = '29/1459.c'
source_filename = "29/1459.c"
target datalayout = "e-m:e-p270:32:32-p271:32:32-p272:64:64-i64:64-f80:128-n8:16:32:64-S128"
target triple = "x86_64-pc-linux-gnu"

@.str = private unnamed_addr constant [3 x i8] c"%d\00", align 1
@.str.1 = private unnamed_addr constant [6 x i8] c"%.3f\0A\00", align 1

; Function Attrs: noinline nounwind uwtable
define dso_local i32 @main() #0 {
  %1 = alloca i32, align 4
  %2 = alloca i32, align 4
  %3 = alloca i32, align 4
  %4 = alloca i32, align 4
  %5 = alloca i32, align 4
  %6 = alloca [100 x i32], align 16
  %7 = alloca [100 x float], align 16
  %8 = alloca [100 x float], align 16
  %9 = alloca float, align 4
  store i32 0, i32* %1, align 4
  %10 = call i32 (i8*, ...) @__isoc99_scanf(i8* getelementptr inbounds ([3 x i8], [3 x i8]* @.str, i64 0, i64 0), i32* %4)
  store i32 0, i32* %5, align 4
  br label %11

11:                                               ; preds = %20, %0
  %12 = load i32, i32* %5, align 4
  %13 = load i32, i32* %4, align 4
  %14 = icmp slt i32 %12, %13
  br i1 %14, label %15, label %23

15:                                               ; preds = %11
  %16 = load i32, i32* %5, align 4
  %17 = sext i32 %16 to i64
  %18 = getelementptr inbounds [100 x i32], [100 x i32]* %6, i64 0, i64 %17
  %19 = call i32 (i8*, ...) @__isoc99_scanf(i8* getelementptr inbounds ([3 x i8], [3 x i8]* @.str, i64 0, i64 0), i32* %18)
  br label %20

20:                                               ; preds = %15
  %21 = load i32, i32* %5, align 4
  %22 = add nsw i32 %21, 1
  store i32 %22, i32* %5, align 4
  br label %11

23:                                               ; preds = %11
  store float 0.000000e+00, float* %9, align 4
  store i32 0, i32* %5, align 4
  br label %24

24:                                               ; preds = %117, %23
  %25 = load i32, i32* %5, align 4
  %26 = load i32, i32* %4, align 4
  %27 = icmp slt i32 %25, %26
  br i1 %27, label %28, label %120

28:                                               ; preds = %24
  %29 = load i32, i32* %5, align 4
  %30 = sext i32 %29 to i64
  %31 = getelementptr inbounds [100 x i32], [100 x i32]* %6, i64 0, i64 %30
  %32 = load i32, i32* %31, align 4
  %33 = icmp eq i32 %32, 1
  br i1 %33, label %34, label %38

34:                                               ; preds = %28
  store float 2.000000e+00, float* %9, align 4
  %35 = load float, float* %9, align 4
  %36 = fpext float %35 to double
  %37 = call i32 (i8*, ...) @printf(i8* getelementptr inbounds ([6 x i8], [6 x i8]* @.str.1, i64 0, i64 0), double %36)
  br label %116

38:                                               ; preds = %28
  %39 = load i32, i32* %5, align 4
  %40 = sext i32 %39 to i64
  %41 = getelementptr inbounds [100 x i32], [100 x i32]* %6, i64 0, i64 %40
  %42 = load i32, i32* %41, align 4
  %43 = icmp sge i32 %42, 2
  br i1 %43, label %44, label %115

44:                                               ; preds = %38
  %45 = getelementptr inbounds [100 x float], [100 x float]* %7, i64 0, i64 0
  store float 2.000000e+00, float* %45, align 16
  %46 = getelementptr inbounds [100 x float], [100 x float]* %7, i64 0, i64 1
  store float 3.000000e+00, float* %46, align 4
  %47 = getelementptr inbounds [100 x float], [100 x float]* %8, i64 0, i64 0
  store float 1.000000e+00, float* %47, align 16
  %48 = getelementptr inbounds [100 x float], [100 x float]* %8, i64 0, i64 1
  store float 2.000000e+00, float* %48, align 4
  store i32 2, i32* %2, align 4
  br label %49

49:                                               ; preds = %85, %44
  %50 = load i32, i32* %2, align 4
  %51 = load i32, i32* %5, align 4
  %52 = sext i32 %51 to i64
  %53 = getelementptr inbounds [100 x i32], [100 x i32]* %6, i64 0, i64 %52
  %54 = load i32, i32* %53, align 4
  %55 = icmp slt i32 %50, %54
  br i1 %55, label %56, label %88

56:                                               ; preds = %49
  %57 = load i32, i32* %2, align 4
  %58 = sub nsw i32 %57, 1
  %59 = sext i32 %58 to i64
  %60 = getelementptr inbounds [100 x float], [100 x float]* %7, i64 0, i64 %59
  %61 = load float, float* %60, align 4
  %62 = load i32, i32* %2, align 4
  %63 = sub nsw i32 %62, 2
  %64 = sext i32 %63 to i64
  %65 = getelementptr inbounds [100 x float], [100 x float]* %7, i64 0, i64 %64
  %66 = load float, float* %65, align 4
  %67 = fadd float %61, %66
  %68 = load i32, i32* %2, align 4
  %69 = sext i32 %68 to i64
  %70 = getelementptr inbounds [100 x float], [100 x float]* %7, i64 0, i64 %69
  store float %67, float* %70, align 4
  %71 = load i32, i32* %2, align 4
  %72 = sub nsw i32 %71, 1
  %73 = sext i32 %72 to i64
  %74 = getelementptr inbounds [100 x float], [100 x float]* %8, i64 0, i64 %73
  %75 = load float, float* %74, align 4
  %76 = load i32, i32* %2, align 4
  %77 = sub nsw i32 %76, 2
  %78 = sext i32 %77 to i64
  %79 = getelementptr inbounds [100 x float], [100 x float]* %8, i64 0, i64 %78
  %80 = load float, float* %79, align 4
  %81 = fadd float %75, %80
  %82 = load i32, i32* %2, align 4
  %83 = sext i32 %82 to i64
  %84 = getelementptr inbounds [100 x float], [100 x float]* %8, i64 0, i64 %83
  store float %81, float* %84, align 4
  br label %85

85:                                               ; preds = %56
  %86 = load i32, i32* %2, align 4
  %87 = add nsw i32 %86, 1
  store i32 %87, i32* %2, align 4
  br label %49

88:                                               ; preds = %49
  store i32 0, i32* %2, align 4
  br label %89

89:                                               ; preds = %108, %88
  %90 = load i32, i32* %2, align 4
  %91 = load i32, i32* %5, align 4
  %92 = sext i32 %91 to i64
  %93 = getelementptr inbounds [100 x i32], [100 x i32]* %6, i64 0, i64 %92
  %94 = load i32, i32* %93, align 4
  %95 = icmp slt i32 %90, %94
  br i1 %95, label %96, label %111

96:                                               ; preds = %89
  %97 = load i32, i32* %2, align 4
  %98 = sext i32 %97 to i64
  %99 = getelementptr inbounds [100 x float], [100 x float]* %7, i64 0, i64 %98
  %100 = load float, float* %99, align 4
  %101 = load i32, i32* %2, align 4
  %102 = sext i32 %101 to i64
  %103 = getelementptr inbounds [100 x float], [100 x float]* %8, i64 0, i64 %102
  %104 = load float, float* %103, align 4
  %105 = fdiv float %100, %104
  %106 = load float, float* %9, align 4
  %107 = fadd float %106, %105
  store float %107, float* %9, align 4
  br label %108

108:                                              ; preds = %96
  %109 = load i32, i32* %2, align 4
  %110 = add nsw i32 %109, 1
  store i32 %110, i32* %2, align 4
  br label %89

111:                                              ; preds = %89
  %112 = load float, float* %9, align 4
  %113 = fpext float %112 to double
  %114 = call i32 (i8*, ...) @printf(i8* getelementptr inbounds ([6 x i8], [6 x i8]* @.str.1, i64 0, i64 0), double %113)
  br label %115

115:                                              ; preds = %111, %38
  br label %116

116:                                              ; preds = %115, %34
  store float 0.000000e+00, float* %9, align 4
  br label %117

117:                                              ; preds = %116
  %118 = load i32, i32* %5, align 4
  %119 = add nsw i32 %118, 1
  store i32 %119, i32* %5, align 4
  br label %24

120:                                              ; preds = %24
  ret i32 0
}

declare dso_local i32 @__isoc99_scanf(i8*, ...) #1

declare dso_local i32 @printf(i8*, ...) #1


!llvm.module.flags = !{!0}
!llvm.ident = !{!1}

!0 = !{i32 1, !"wchar_size", i32 4}
!1 = !{!"clang version 10.0.0-4ubuntu1 "}
